target datalayout = "e-m:e-p270:32:32-p271:32:32-p272:64:64-i64:64-i128:128-f80:128-n8:16:32:64-S128"
target triple = "x86_64-pc-linux-gnu"

%struct.portalhashent = type { [64 x i8], ptr }
%struct.PortalData = type { ptr, ptr, ptr, ptr, ptr, i32, i32, i32, ptr, i32, %struct.QueryCompletion, ptr, ptr, ptr, ptr, i32, i32, i32, i8, i8, ptr, ptr, ptr, ptr, ptr, ptr, ptr, i8, i8, i64, i64, i8 }
%struct.QueryCompletion = type { i32, i64 }

@TopPortalContext = internal global ptr null, align 8
@PortalHashTable = internal global ptr null, align 8
@.str.2 = private unnamed_addr constant [27 x i8] c"cursor \22%s\22 already exists\00", align 1
@.str.3 = private unnamed_addr constant [12 x i8] c"portalmem.c\00", align 1
@__func__.CreatePortal = private unnamed_addr constant [13 x i8] c"CreatePortal\00", align 1
@.str.4 = private unnamed_addr constant [29 x i8] c"closing existing cursor \22%s\22\00", align 1
@.str.5 = private unnamed_addr constant [14 x i8] c"PortalContext\00", align 1
@CurTransactionResourceOwner = external global ptr, align 8
@.str.6 = private unnamed_addr constant [7 x i8] c"Portal\00", align 1
@.str.7 = private unnamed_addr constant [22 x i8] c"duplicate portal name\00", align 1
@.str.8 = private unnamed_addr constant [10 x i8] c"<unnamed>\00", align 1

; Function Attrs: nounwind uwtable
define dso_local ptr @GetPortalByName(ptr noundef %0) #0 {
  %2 = alloca ptr, align 8
  %3 = alloca ptr, align 8
  %4 = alloca ptr, align 8
  store ptr %0, ptr %2, align 8
  call void @llvm.lifetime.start.p0(i64 8, ptr %3) #6
  %5 = load ptr, ptr %2, align 8
  %6 = icmp ne ptr %5, null
  br i1 %6, label %7, label %22

7:                                                ; preds = %1
  br label %8

8:                                                ; preds = %7
  call void @llvm.lifetime.start.p0(i64 8, ptr %4) #6
  %9 = load ptr, ptr @PortalHashTable, align 8
  %10 = load ptr, ptr %2, align 8
  %11 = call ptr @hash_search(ptr noundef %9, ptr noundef %10, i32 noundef 0, ptr noundef null)
  store ptr %11, ptr %4, align 8
  %12 = load ptr, ptr %4, align 8
  %13 = icmp ne ptr %12, null
  br i1 %13, label %14, label %18

14:                                               ; preds = %8
  %15 = load ptr, ptr %4, align 8
  %16 = getelementptr inbounds nuw %struct.portalhashent, ptr %15, i32 0, i32 1
  %17 = load ptr, ptr %16, align 8
  store ptr %17, ptr %3, align 8
  br label %19

18:                                               ; preds = %8
  store ptr null, ptr %3, align 8
  br label %19

19:                                               ; preds = %18, %14
  call void @llvm.lifetime.end.p0(i64 8, ptr %4) #6
  br label %20

20:                                               ; preds = %19
  br label %21

21:                                               ; preds = %20
  br label %23

22:                                               ; preds = %1
  store ptr null, ptr %3, align 8
  br label %23

23:                                               ; preds = %22, %21
  %24 = load ptr, ptr %3, align 8
  call void @llvm.lifetime.end.p0(i64 8, ptr %3) #6
  ret ptr %24
}

; Function Attrs: nounwind uwtable
define dso_local ptr @CreatePortal(ptr noundef %0, i1 noundef zeroext %1, i1 noundef zeroext %2) #0 {
  %4 = alloca ptr, align 8
  %5 = alloca i8, align 1
  %6 = alloca i8, align 1
  %7 = alloca ptr, align 8
  %8 = alloca i32, align 4
  %9 = alloca ptr, align 8
  %10 = alloca i8, align 1
  store ptr %0, ptr %4, align 8
  %11 = zext i1 %1 to i8
  store i8 %11, ptr %5, align 1
  %12 = zext i1 %2 to i8
  store i8 %12, ptr %6, align 1
  call void @llvm.lifetime.start.p0(i64 8, ptr %7) #6
  %13 = load ptr, ptr %4, align 8
  %14 = call ptr @GetPortalByName(ptr noundef %13)
  store ptr %14, ptr %7, align 8
  %15 = load ptr, ptr %7, align 8
  %16 = icmp ne ptr %15, null
  br i1 %16, label %17, label %51

17:                                               ; preds = %3
  %18 = load i8, ptr %5, align 1, !range !4, !noundef !5
  %19 = trunc i8 %18 to i1
  br i1 %19, label %33, label %20

20:                                               ; preds = %17
  br label %21

21:                                               ; preds = %20
  br i1 true, label %22, label %24

22:                                               ; preds = %21
  %23 = call zeroext i1 @errstart_cold(i32 noundef 21, ptr noundef null) #7
  br i1 %23, label %26, label %30

24:                                               ; preds = %21
  %25 = call zeroext i1 @errstart(i32 noundef 21, ptr noundef null)
  br i1 %25, label %26, label %30

26:                                               ; preds = %24, %22
  %27 = call i32 @errcode(i32 noundef 50462852)
  %28 = load ptr, ptr %4, align 8
  %29 = call i32 (ptr, ...) @errmsg(ptr noundef @.str.2, ptr noundef %28)
  call void @errfinish(ptr noundef @.str.3, i32 noundef 187, ptr noundef @__func__.CreatePortal)
  br label %30

30:                                               ; preds = %26, %24, %22
  unreachable

31:                                               ; No predecessors!
  br label %32

32:                                               ; preds = %31
  br label %33

33:                                               ; preds = %32, %17
  %34 = load i8, ptr %6, align 1, !range !4, !noundef !5
  %35 = trunc i8 %34 to i1
  br i1 %35, label %49, label %36

36:                                               ; preds = %33
  br label %37

37:                                               ; preds = %36
  br i1 false, label %38, label %40

38:                                               ; preds = %37
  %39 = call zeroext i1 @errstart_cold(i32 noundef 19, ptr noundef null) #7
  br i1 %39, label %42, label %46

40:                                               ; preds = %37
  %41 = call zeroext i1 @errstart(i32 noundef 19, ptr noundef null)
  br i1 %41, label %42, label %46

42:                                               ; preds = %40, %38
  %43 = call i32 @errcode(i32 noundef 50462852)
  %44 = load ptr, ptr %4, align 8
  %45 = call i32 (ptr, ...) @errmsg(ptr noundef @.str.4, ptr noundef %44)
  call void @errfinish(ptr noundef @.str.3, i32 noundef 192, ptr noundef @__func__.CreatePortal)
  br label %46

46:                                               ; preds = %42, %40, %38
  br label %47

47:                                               ; preds = %46
  br label %48

48:                                               ; preds = %47
  br label %49

49:                                               ; preds = %48, %33
  %50 = load ptr, ptr %7, align 8
  call void @PortalDrop(ptr noundef %50, i1 noundef zeroext false)
  br label %51

51:                                               ; preds = %49, %3
  %52 = load ptr, ptr @TopPortalContext, align 8
  %53 = call ptr @MemoryContextAllocZero(ptr noundef %52, i64 noundef 224)
  store ptr %53, ptr %7, align 8
  br label %54

54:                                               ; preds = %51
  br label %55

55:                                               ; preds = %54
  br label %56

56:                                               ; preds = %55
  store i32 1, ptr %8, align 4
  %57 = load ptr, ptr @TopPortalContext, align 8
  %58 = call ptr @AllocSetContextCreateInternal(ptr noundef %57, ptr noundef @.str.5, i64 noundef 0, i64 noundef 1024, i64 noundef 8192)
  %59 = load ptr, ptr %7, align 8
  %60 = getelementptr inbounds nuw %struct.PortalData, ptr %59, i32 0, i32 2
  store ptr %58, ptr %60, align 8
  %61 = load ptr, ptr @CurTransactionResourceOwner, align 8
  %62 = call ptr @ResourceOwnerCreate(ptr noundef %61, ptr noundef @.str.6)
  %63 = load ptr, ptr %7, align 8
  %64 = getelementptr inbounds nuw %struct.PortalData, ptr %63, i32 0, i32 3
  store ptr %62, ptr %64, align 8
  %65 = load ptr, ptr %7, align 8
  %66 = getelementptr inbounds nuw %struct.PortalData, ptr %65, i32 0, i32 17
  store i32 0, ptr %66, align 8
  %67 = load ptr, ptr %7, align 8
  %68 = getelementptr inbounds nuw %struct.PortalData, ptr %67, i32 0, i32 4
  store ptr @PortalCleanup, ptr %68, align 8
  %69 = call i32 @GetCurrentSubTransactionId()
  %70 = load ptr, ptr %7, align 8
  %71 = getelementptr inbounds nuw %struct.PortalData, ptr %70, i32 0, i32 5
  store i32 %69, ptr %71, align 8
  %72 = load ptr, ptr %7, align 8
  %73 = getelementptr inbounds nuw %struct.PortalData, ptr %72, i32 0, i32 5
  %74 = load i32, ptr %73, align 8
  %75 = load ptr, ptr %7, align 8
  %76 = getelementptr inbounds nuw %struct.PortalData, ptr %75, i32 0, i32 6
  store i32 %74, ptr %76, align 4
  %77 = call i32 @GetCurrentTransactionNestLevel()
  %78 = load ptr, ptr %7, align 8
  %79 = getelementptr inbounds nuw %struct.PortalData, ptr %78, i32 0, i32 7
  store i32 %77, ptr %79, align 8
  %80 = load ptr, ptr %7, align 8
  %81 = getelementptr inbounds nuw %struct.PortalData, ptr %80, i32 0, i32 15
  store i32 4, ptr %81, align 8
  %82 = load ptr, ptr %7, align 8
  %83 = getelementptr inbounds nuw %struct.PortalData, ptr %82, i32 0, i32 16
  store i32 4, ptr %83, align 4
  %84 = load ptr, ptr %7, align 8
  %85 = getelementptr inbounds nuw %struct.PortalData, ptr %84, i32 0, i32 27
  store i8 1, ptr %85, align 8
  %86 = load ptr, ptr %7, align 8
  %87 = getelementptr inbounds nuw %struct.PortalData, ptr %86, i32 0, i32 28
  store i8 1, ptr %87, align 1
  %88 = load ptr, ptr %7, align 8
  %89 = getelementptr inbounds nuw %struct.PortalData, ptr %88, i32 0, i32 31
  store i8 1, ptr %89, align 8
  %90 = call i64 @GetCurrentStatementStartTimestamp()
  %91 = load ptr, ptr %7, align 8
  %92 = getelementptr inbounds nuw %struct.PortalData, ptr %91, i32 0, i32 30
  store i64 %90, ptr %92, align 8
  br label %93

93:                                               ; preds = %56
  call void @llvm.lifetime.start.p0(i64 8, ptr %9) #6
  call void @llvm.lifetime.start.p0(i64 1, ptr %10) #6
  %94 = load ptr, ptr @PortalHashTable, align 8
  %95 = load ptr, ptr %4, align 8
  %96 = call ptr @hash_search(ptr noundef %94, ptr noundef %95, i32 noundef 1, ptr noundef %10)
  store ptr %96, ptr %9, align 8
  %97 = load i8, ptr %10, align 1, !range !4, !noundef !5
  %98 = trunc i8 %97 to i1
  br i1 %98, label %99, label %110

99:                                               ; preds = %93
  br label %100

100:                                              ; preds = %99
  br i1 true, label %101, label %103

101:                                              ; preds = %100
  %102 = call zeroext i1 @errstart_cold(i32 noundef 21, ptr noundef null) #7
  br i1 %102, label %105, label %107

103:                                              ; preds = %100
  %104 = call zeroext i1 @errstart(i32 noundef 21, ptr noundef null)
  br i1 %104, label %105, label %107

105:                                              ; preds = %103, %101
  %106 = call i32 (ptr, ...) @errmsg_internal(ptr noundef @.str.7)
  call void @errfinish(ptr noundef @.str.3, i32 noundef 222, ptr noundef @__func__.CreatePortal)
  br label %107

107:                                              ; preds = %105, %103, %101
  unreachable

108:                                              ; No predecessors!
  br label %109

109:                                              ; preds = %108
  br label %110

110:                                              ; preds = %109, %93
  %111 = load ptr, ptr %7, align 8
  %112 = load ptr, ptr %9, align 8
  %113 = getelementptr inbounds nuw %struct.portalhashent, ptr %112, i32 0, i32 1
  store ptr %111, ptr %113, align 8
  %114 = load ptr, ptr %9, align 8
  %115 = getelementptr inbounds nuw %struct.portalhashent, ptr %114, i32 0, i32 0
  %116 = getelementptr inbounds [64 x i8], ptr %115, i64 0, i64 0
  %117 = load ptr, ptr %7, align 8
  %118 = getelementptr inbounds nuw %struct.PortalData, ptr %117, i32 0, i32 0
  store ptr %116, ptr %118, align 8
  call void @llvm.lifetime.end.p0(i64 1, ptr %10) #6
  call void @llvm.lifetime.end.p0(i64 8, ptr %9) #6
  br label %119

119:                                              ; preds = %110
  br label %120

120:                                              ; preds = %119
  %121 = load ptr, ptr %7, align 8
  %122 = getelementptr inbounds nuw %struct.PortalData, ptr %121, i32 0, i32 2
  %123 = load ptr, ptr %122, align 8
  %124 = load ptr, ptr %7, align 8
  %125 = getelementptr inbounds nuw %struct.PortalData, ptr %124, i32 0, i32 0
  %126 = load ptr, ptr %125, align 8
  %127 = getelementptr inbounds i8, ptr %126, i64 0
  %128 = load i8, ptr %127, align 1
  %129 = sext i8 %128 to i32
  %130 = icmp ne i32 %129, 0
  br i1 %130, label %131, label %135

131:                                              ; preds = %120
  %132 = load ptr, ptr %7, align 8
  %133 = getelementptr inbounds nuw %struct.PortalData, ptr %132, i32 0, i32 0
  %134 = load ptr, ptr %133, align 8
  br label %136

135:                                              ; preds = %120
  br label %136

136:                                              ; preds = %135, %131
  %137 = phi ptr [ %134, %131 ], [ @.str.8, %135 ]
  call void @MemoryContextSetIdentifier(ptr noundef %123, ptr noundef %137)
  %138 = load ptr, ptr %7, align 8
  call void @llvm.lifetime.end.p0(i64 8, ptr %7) #6
  ret ptr %138
}