; Function Attrs: nounwind uwtable
define dso_local ptr @CreatePortal(ptr noundef %0, i1 noundef zeroext %1, i1 noundef zeroext %2) local_unnamed_addr #0 {
  %4 = alloca i8, align 1
  %.not.i = icmp eq ptr %0, null
  br i1 %.not.i, label %GetPortalByName.exit.thread, label %5

5:                                                ; preds = %3
  %6 = load ptr, ptr @PortalHashTable, align 8
  %7 = tail call ptr @hash_search(ptr noundef %6, ptr noundef nonnull %0, i32 noundef 0, ptr noundef null) #8
  %.not7.i = icmp eq ptr %7, null
  br i1 %.not7.i, label %GetPortalByName.exit.thread, label %GetPortalByName.exit

GetPortalByName.exit:                             ; preds = %5
  %8 = getelementptr inbounds nuw i8, ptr %7, i64 64
  %9 = load ptr, ptr %8, align 8
  %.not = icmp eq ptr %9, null
  br i1 %.not, label %GetPortalByName.exit.thread, label %10

10:                                               ; preds = %GetPortalByName.exit
  br i1 %1, label %15, label %11

11:                                               ; preds = %10
  %12 = tail call zeroext i1 @errstart_cold(i32 noundef 21, ptr noundef null) #9
  tail call void @llvm.assume(i1 %12)
  %13 = tail call i32 @errcode(i32 noundef 50462852) #8
  %14 = tail call i32 (ptr, ...) @errmsg(ptr noundef nonnull @.str.2, ptr noundef nonnull %0) #8
  tail call void @errfinish(ptr noundef nonnull @.str.3, i32 noundef 187, ptr noundef nonnull @__func__.CreatePortal) #8
  unreachable

15:                                               ; preds = %10
  br i1 %2, label %21, label %16

16:                                               ; preds = %15
  %17 = tail call zeroext i1 @errstart(i32 noundef 19, ptr noundef null) #8
  br i1 %17, label %18, label %21

18:                                               ; preds = %16
  %19 = tail call i32 @errcode(i32 noundef 50462852) #8
  %20 = tail call i32 (ptr, ...) @errmsg(ptr noundef nonnull @.str.4, ptr noundef nonnull %0) #8
  tail call void @errfinish(ptr noundef nonnull @.str.3, i32 noundef 192, ptr noundef nonnull @__func__.CreatePortal) #8
  br label %21

21:                                               ; preds = %16, %18, %15
  tail call void @PortalDrop(ptr noundef nonnull %9, i1 noundef zeroext false)
  br label %GetPortalByName.exit.thread

GetPortalByName.exit.thread:                      ; preds = %3, %5, %21, %GetPortalByName.exit
  %22 = load ptr, ptr @TopPortalContext, align 8
  %23 = tail call ptr @MemoryContextAllocZero(ptr noundef %22, i64 noundef 224) #8
  %24 = load ptr, ptr @TopPortalContext, align 8
  %25 = tail call ptr @AllocSetContextCreateInternal(ptr noundef %24, ptr noundef nonnull @.str.5, i64 noundef 0, i64 noundef 1024, i64 noundef 8192) #8
  %26 = getelementptr inbounds nuw i8, ptr %23, i64 16
  store ptr %25, ptr %26, align 8
  %27 = load ptr, ptr @CurTransactionResourceOwner, align 8
  %28 = tail call ptr @ResourceOwnerCreate(ptr noundef %27, ptr noundef nonnull @.str.6) #8
  %29 = getelementptr inbounds nuw i8, ptr %23, i64 24
  store ptr %28, ptr %29, align 8
  %30 = getelementptr inbounds nuw i8, ptr %23, i64 128
  store i32 0, ptr %30, align 8
  %31 = getelementptr inbounds nuw i8, ptr %23, i64 32
  store ptr @PortalCleanup, ptr %31, align 8
  %32 = tail call i32 @GetCurrentSubTransactionId() #8
  %33 = getelementptr inbounds nuw i8, ptr %23, i64 40
  store i32 %32, ptr %33, align 8
  %34 = getelementptr inbounds nuw i8, ptr %23, i64 44
  store i32 %32, ptr %34, align 4
  %35 = tail call i32 @GetCurrentTransactionNestLevel() #8
  %36 = getelementptr inbounds nuw i8, ptr %23, i64 48
  store i32 %35, ptr %36, align 8
  %37 = getelementptr inbounds nuw i8, ptr %23, i64 120
  store i32 4, ptr %37, align 8
  %38 = getelementptr inbounds nuw i8, ptr %23, i64 124
  store i32 4, ptr %38, align 4
  %39 = getelementptr inbounds nuw i8, ptr %23, i64 192
  store i8 1, ptr %39, align 8
  %40 = getelementptr inbounds nuw i8, ptr %23, i64 193
  store i8 1, ptr %40, align 1
  %41 = getelementptr inbounds nuw i8, ptr %23, i64 216
  store i8 1, ptr %41, align 8
  %42 = tail call i64 @GetCurrentStatementStartTimestamp() #8
  %43 = getelementptr inbounds nuw i8, ptr %23, i64 208
  store i64 %42, ptr %43, align 8
  call void @llvm.lifetime.start.p0(i64 1, ptr nonnull %4) #8
  %44 = load ptr, ptr @PortalHashTable, align 8
  %45 = call ptr @hash_search(ptr noundef %44, ptr noundef %0, i32 noundef 1, ptr noundef nonnull %4) #8
  %46 = load i8, ptr %4, align 1, !range !4, !noundef !5
  %47 = trunc nuw i8 %46 to i1
  br i1 %47, label %48, label %51

48:                                               ; preds = %GetPortalByName.exit.thread
  %49 = call zeroext i1 @errstart_cold(i32 noundef 21, ptr noundef null) #9
  call void @llvm.assume(i1 %49)
  %50 = call i32 (ptr, ...) @errmsg_internal(ptr noundef nonnull @.str.7) #8
  call void @errfinish(ptr noundef nonnull @.str.3, i32 noundef 222, ptr noundef nonnull @__func__.CreatePortal) #8
  unreachable

51:                                               ; preds = %GetPortalByName.exit.thread
  %52 = getelementptr inbounds nuw i8, ptr %45, i64 64
  store ptr %23, ptr %52, align 8
  store ptr %45, ptr %23, align 8
  call void @llvm.lifetime.end.p0(i64 1, ptr nonnull %4) #8
  %53 = load ptr, ptr %26, align 8
  %54 = load i8, ptr %45, align 1
  %.not29 = icmp eq i8 %54, 0
  %spec.select = select i1 %.not29, ptr @.str.8, ptr %45
  call void @MemoryContextSetIdentifier(ptr noundef %53, ptr noundef nonnull %spec.select) #8
  ret ptr %23
}